; Function Attrs: mustprogress nounwind uwtable
define dso_local void @_ZN4llvm14CombinerHelper25applyCommuteBinOpOperandsERNS_12MachineInstrE(ptr nocapture noundef nonnull readonly align 8 dereferenceable(72) %0, ptr noundef nonnull align 8 dereferenceable(70) %1) local_unnamed_addr #0 align 2 {
  %3 = getelementptr inbounds nuw i8, ptr %0, i64 16
  %4 = load ptr, ptr %3, align 8
  %5 = load ptr, ptr %4, align 8
  %6 = getelementptr inbounds i8, ptr %5, i64 32
  %7 = load ptr, ptr %6, align 8
  tail call void %7(ptr noundef nonnull align 8 dereferenceable(72) %4, ptr noundef nonnull align 8 dereferenceable(70) %1) #27
  %8 = getelementptr inbounds nuw i8, ptr %1, i64 68
  %9 = load i16, ptr %8, align 4
  %switch.tableidx = add i16 %9, -147
  %10 = icmp ult i16 %switch.tableidx, 10
  br i1 %10, label %switch.lookup, label %.split

switch.lookup:                                    ; preds = %2
  %11 = zext nneg i16 %switch.tableidx to i64
  %switch.gep = getelementptr inbounds [10 x i64], ptr @switch.table._ZN4llvm14CombinerHelper25applyCommuteBinOpOperandsERNS_12MachineInstrE, i64 0, i64 %11
  %switch.load = load i64, ptr %switch.gep, align 8
  %12 = zext nneg i16 %switch.tableidx to i64
  %switch.gep19 = getelementptr inbounds [10 x i64], ptr @switch.table._ZN4llvm14CombinerHelper25applyCommuteBinOpOperandsERNS_12MachineInstrE.518, i64 0, i64 %12
  %switch.load20 = load i64, ptr %switch.gep19, align 8
  %13 = zext nneg i16 %switch.tableidx to i64
  %switch.gep21 = getelementptr inbounds [10 x i64], ptr @switch.table._ZN4llvm14CombinerHelper25applyCommuteBinOpOperandsERNS_12MachineInstrE.519, i64 0, i64 %13
  %switch.load22 = load i64, ptr %switch.gep21, align 8
  br label %.split

.split:                                           ; preds = %switch.lookup, %2
  %.sink17 = phi i64 [ 32, %2 ], [ %switch.load, %switch.lookup ]
  %.014 = phi i64 [ 2, %2 ], [ %switch.load20, %switch.lookup ]
  %.0 = phi i64 [ 1, %2 ], [ %switch.load22, %switch.lookup ]
  %14 = getelementptr inbounds nuw i8, ptr %1, i64 32
  %15 = load ptr, ptr %14, align 8
  %16 = getelementptr inbounds i8, ptr %15, i64 %.sink17
  %17 = getelementptr inbounds nuw i8, ptr %16, i64 4
  %18 = load i32, ptr %17, align 4
  %19 = getelementptr inbounds nuw i8, ptr %1, i64 32
  %20 = getelementptr inbounds %"class.llvm::MachineOperand", ptr %15, i64 %.014, i32 1
  %21 = load i32, ptr %20, align 4
  %22 = getelementptr inbounds %"class.llvm::MachineOperand", ptr %15, i64 %.0
  tail call void @_ZN4llvm14MachineOperand6setRegENS_8RegisterE(ptr noundef nonnull align 8 dereferenceable(32) %22, i32 %21) #27
  %23 = load ptr, ptr %19, align 8
  %24 = getelementptr inbounds %"class.llvm::MachineOperand", ptr %23, i64 %.014
  tail call void @_ZN4llvm14MachineOperand6setRegENS_8RegisterE(ptr noundef nonnull align 8 dereferenceable(32) %24, i32 %18) #27
  %25 = load ptr, ptr %3, align 8
  %26 = load ptr, ptr %25, align 8
  %27 = getelementptr inbounds i8, ptr %26, i64 40
  %28 = load ptr, ptr %27, align 8
  tail call void %28(ptr noundef nonnull align 8 dereferenceable(72) %25, ptr noundef nonnull align 8 dereferenceable(70) %1) #27
  ret void
}